; Function Attrs: mustprogress nounwind uwtable
define hidden void @_ZN5Parse11do_newarrayE9BasicType(ptr noundef nonnull align 8 dereferenceable(352) %0, i8 noundef zeroext %1) local_unnamed_addr #0 align 2 {
  tail call void @_ZN8GraphKit16kill_dead_localsEv(ptr noundef nonnull align 8 dereferenceable(84) %0) #7
  %3 = getelementptr inbounds i8, ptr %0, i64 40
  %4 = load ptr, ptr %3, align 8
  %5 = getelementptr inbounds i8, ptr %4, i64 56
  %6 = load ptr, ptr %5, align 8
  %7 = getelementptr inbounds i8, ptr %0, i64 80
  %8 = load i32, ptr %7, align 8
  %9 = add nsw i32 %8, -1
  store i32 %9, ptr %7, align 8
  %10 = getelementptr inbounds i8, ptr %6, i64 16
  %11 = load i32, ptr %10, align 8
  %12 = add i32 %11, %9
  %13 = getelementptr inbounds i8, ptr %4, i64 8
  %14 = load ptr, ptr %13, align 8
  %15 = zext i32 %12 to i64
  %16 = getelementptr inbounds ptr, ptr %14, i64 %15
  %17 = load ptr, ptr %16, align 8
  %18 = tail call noundef ptr @_ZN16ciTypeArrayKlass4makeE9BasicType(i8 noundef zeroext %1) #7
  %19 = tail call noundef ptr @_ZN12TypeKlassPtr4makeEP7ciKlassN4Type17InterfaceHandlingE(ptr noundef %18, i32 noundef 1) #7
  %20 = getelementptr inbounds i8, ptr %0, i64 32
  %21 = load ptr, ptr %20, align 8
  %22 = tail call noundef ptr @_ZN11PhaseValues7makeconEPK4Type(ptr noundef nonnull align 8 dereferenceable(2400) %21, ptr noundef %19) #7
  %23 = tail call noundef ptr @_ZN8GraphKit9new_arrayEP4NodeS1_iPS1_b(ptr noundef nonnull align 8 dereferenceable(84) %0, ptr noundef %22, ptr noundef %17, i32 noundef 1, ptr noundef null, i1 noundef zeroext false) #7
  %24 = load ptr, ptr %3, align 8
  %25 = getelementptr inbounds i8, ptr %24, i64 56
  %26 = load ptr, ptr %25, align 8
  %27 = load i32, ptr %7, align 8
  %28 = add nsw i32 %27, 1
  store i32 %28, ptr %7, align 8
  %29 = getelementptr inbounds i8, ptr %26, i64 16
  %30 = load i32, ptr %29, align 8
  %31 = add i32 %30, %27
  %32 = getelementptr inbounds i8, ptr %24, i64 8
  %33 = load ptr, ptr %32, align 8
  %34 = zext i32 %31 to i64
  %35 = getelementptr inbounds ptr, ptr %33, i64 %34
  %36 = load ptr, ptr %35, align 8
  %.not.i.i.i = icmp eq ptr %36, null
  br i1 %.not.i.i.i, label %_ZN4Node7del_outEPS_.exit.i.i.i, label %37

37:                                               ; preds = %2
  %38 = getelementptr inbounds i8, ptr %36, i64 16
  %39 = load ptr, ptr %38, align 8
  %40 = icmp eq ptr %39, null
  br i1 %40, label %_ZN4Node7del_outEPS_.exit.i.i.i, label %41

41:                                               ; preds = %37
  %42 = getelementptr inbounds i8, ptr %36, i64 32
  %43 = load i32, ptr %42, align 8
  %44 = zext i32 %43 to i64
  %45 = getelementptr inbounds ptr, ptr %39, i64 %44
  br label %46

46:                                               ; preds = %46, %41
  %.0.i.i.i.i = phi ptr [ %45, %41 ], [ %47, %46 ]
  %47 = getelementptr inbounds i8, ptr %.0.i.i.i.i, i64 -8
  %48 = load ptr, ptr %47, align 8
  %.not.i.i.i.i = icmp eq ptr %48, %24
  br i1 %.not.i.i.i.i, label %49, label %46, !llvm.loop !6

49:                                               ; preds = %46
  %50 = add i32 %43, -1
  store i32 %50, ptr %42, align 8
  %51 = zext i32 %50 to i64
  %52 = getelementptr inbounds ptr, ptr %39, i64 %51
  %53 = load ptr, ptr %52, align 8
  store ptr %53, ptr %47, align 8
  br label %_ZN4Node7del_outEPS_.exit.i.i.i

_ZN4Node7del_outEPS_.exit.i.i.i:                  ; preds = %49, %37, %2
  store ptr %23, ptr %35, align 8
  %.not8.i.i.i = icmp eq ptr %23, null
  br i1 %.not8.i.i.i, label %_ZN8GraphKit4pushEP4Node.exit, label %54

54:                                               ; preds = %_ZN4Node7del_outEPS_.exit.i.i.i
  %55 = getelementptr inbounds i8, ptr %23, i64 16
  %56 = load ptr, ptr %55, align 8
  %57 = icmp eq ptr %56, null
  br i1 %57, label %_ZN8GraphKit4pushEP4Node.exit, label %58

58:                                               ; preds = %54
  %59 = getelementptr inbounds i8, ptr %23, i64 32
  %60 = load i32, ptr %59, align 8
  %61 = getelementptr inbounds i8, ptr %23, i64 36
  %62 = load i32, ptr %61, align 4
  %63 = icmp eq i32 %60, %62
  br i1 %63, label %64, label %65

64:                                               ; preds = %58
  tail call void @_ZN4Node8out_growEj(ptr noundef nonnull align 8 dereferenceable(52) %23, i32 noundef %60) #7
  %.pre.i.i.i.i = load ptr, ptr %55, align 8
  %.pre2.i.i.i.i = load i32, ptr %59, align 8
  br label %65

65:                                               ; preds = %64, %58
  %66 = phi i32 [ %.pre2.i.i.i.i, %64 ], [ %60, %58 ]
  %67 = phi ptr [ %.pre.i.i.i.i, %64 ], [ %56, %58 ]
  %68 = add i32 %66, 1
  store i32 %68, ptr %59, align 8
  %69 = zext i32 %66 to i64
  %70 = getelementptr inbounds ptr, ptr %67, i64 %69
  store ptr %24, ptr %70, align 8
  br label %_ZN8GraphKit4pushEP4Node.exit

_ZN8GraphKit4pushEP4Node.exit:                    ; preds = %_ZN4Node7del_outEPS_.exit.i.i.i, %54, %65
  ret void
}